target datalayout = "e-m:e-p270:32:32-p271:32:32-p272:64:64-i64:64-i128:128-f80:128-n8:16:32:64-S128"
target triple = "x86_64-pc-linux-gnu"

@.str = private unnamed_addr constant [9 x i8] c"%s(): %s\00", align 1
@.str.3 = private unnamed_addr constant [9 x i8] c"No error\00", align 1
@tjDestroy.FUNCTION_NAME = internal constant [10 x i8] c"tjDestroy\00", align 1
@.str.29 = private unnamed_addr constant [15 x i8] c"Invalid handle\00", align 1

; Function Attrs: nounwind uwtable
define i32 @tjDestroy(ptr noundef %0) #0 {
  %2 = alloca ptr, align 8
  %3 = alloca i32, align 4
  store ptr %0, ptr %2, align 8
  store i32 0, ptr %3, align 4
  %4 = load ptr, ptr %2, align 8
  %5 = icmp ne ptr %4, null
  br i1 %5, label %10, label %6

6:                                                ; preds = %1
  %7 = call align 16 ptr @llvm.threadlocal.address.p0(ptr align 16 @errStr)
  %8 = getelementptr inbounds [200 x i8], ptr %7, i64 0, i64 0
  %9 = call i32 (ptr, i64, ptr, ...) @snprintf(ptr noundef %8, i64 noundef 200, ptr noundef @.str, ptr noundef @tjDestroy.FUNCTION_NAME, ptr noundef @.str.29) #11
  store i32 -1, ptr %3, align 4
  br label %21

10:                                               ; preds = %1
  %11 = call align 16 ptr @llvm.threadlocal.address.p0(ptr align 16 @errStr)
  %12 = getelementptr inbounds [200 x i8], ptr %11, i64 0, i64 0
  %13 = call i32 (ptr, i64, ptr, ...) @snprintf(ptr noundef %12, i64 noundef 200, ptr noundef @.str.3) #11
  %14 = load ptr, ptr %2, align 8
  call void @tj3Destroy(ptr noundef %14)
  %15 = call align 16 ptr @llvm.threadlocal.address.p0(ptr align 16 @errStr)
  %16 = getelementptr inbounds [200 x i8], ptr %15, i64 0, i64 0
  %17 = call i32 @strcmp(ptr noundef %16, ptr noundef @.str.3) #14
  %18 = icmp ne i32 %17, 0
  br i1 %18, label %19, label %20

19:                                               ; preds = %10
  store i32 -1, ptr %3, align 4
  br label %20

20:                                               ; preds = %19, %10
  br label %21

21:                                               ; preds = %20, %6
  %22 = load i32, ptr %3, align 4
  ret i32 %22
}