; Function Attrs: nounwind uwtable
define range(i32 -1, 1) i32 @tjDestroy(ptr noundef %0) local_unnamed_addr #0 {
  %.not = icmp eq ptr %0, null
  %2 = tail call align 16 ptr @llvm.threadlocal.address.p0(ptr align 16 @errStr)
  br i1 %.not, label %3, label %5

3:                                                ; preds = %1
  %4 = tail call i32 (ptr, i64, ptr, ...) @snprintf(ptr noundef nonnull dereferenceable(1) %2, i64 noundef 200, ptr noundef nonnull @.str, ptr noundef nonnull @tjDestroy.FUNCTION_NAME, ptr noundef nonnull @.str.29) #26
  br label %6

5:                                                ; preds = %1
  tail call void @llvm.memcpy.p0.p0.i64(ptr noundef nonnull align 16 dereferenceable(9) %2, ptr noundef nonnull align 1 dereferenceable(9) @.str.3, i64 9, i1 false)
  tail call void @tj3Destroy(ptr noundef nonnull %0)
  %bcmp = tail call i32 @bcmp(ptr noundef nonnull dereferenceable(9) %2, ptr noundef nonnull dereferenceable(9) @.str.3, i64 9)
  %.not3 = icmp ne i32 %bcmp, 0
  %spec.select = sext i1 %.not3 to i32
  br label %6

6:                                                ; preds = %5, %3
  %.0 = phi i32 [ -1, %3 ], [ %spec.select, %5 ]
  ret i32 %.0
}